; Function Attrs: nounwind uwtable
define zeroext range(i8 0, 2) i8 @l_Lean_Linter_MissingDocs_hasInheritDoc(ptr noundef %0) local_unnamed_addr #0 {
  %2 = tail call ptr @l_Lean_Syntax_getArg(ptr noundef %0, ptr noundef nonnull inttoptr (i64 1 to ptr)) #5
  %3 = tail call ptr @l_Lean_Syntax_getArg(ptr noundef %2, ptr noundef nonnull inttoptr (i64 3 to ptr)) #5
  %4 = ptrtoint ptr %2 to i64
  %5 = and i64 %4, 1
  %.not = icmp eq i64 %5, 0
  br i1 %.not, label %6, label %lean_dec.exit25

6:                                                ; preds = %1
  %7 = load i32, ptr %2, align 4, !tbaa !8
  %8 = icmp sgt i32 %7, 1
  br i1 %8, label %9, label %11, !prof !11

9:                                                ; preds = %6
  %10 = add nsw i32 %7, -1
  store i32 %10, ptr %2, align 4, !tbaa !8
  br label %lean_dec.exit25

11:                                               ; preds = %6
  %.not.i = icmp eq i32 %7, 0
  br i1 %.not.i, label %lean_dec.exit25, label %12

12:                                               ; preds = %11
  tail call void @lean_dec_ref_cold(ptr noundef nonnull %2) #5
  br label %lean_dec.exit25

lean_dec.exit25:                                  ; preds = %12, %11, %9, %1
  %13 = tail call ptr @l_Lean_Syntax_getSepArgs(ptr noundef %3) #5
  %14 = ptrtoint ptr %3 to i64
  %15 = and i64 %14, 1
  %.not37 = icmp eq i64 %15, 0
  br i1 %.not37, label %16, label %lean_nat_lt.exit

16:                                               ; preds = %lean_dec.exit25
  %17 = load i32, ptr %3, align 4, !tbaa !8
  %18 = icmp sgt i32 %17, 1
  br i1 %18, label %19, label %21, !prof !11

19:                                               ; preds = %16
  %20 = add nsw i32 %17, -1
  store i32 %20, ptr %3, align 4, !tbaa !8
  br label %lean_nat_lt.exit

21:                                               ; preds = %16
  %.not.i26 = icmp eq i32 %17, 0
  br i1 %.not.i26, label %lean_nat_lt.exit, label %22

22:                                               ; preds = %21
  tail call void @lean_dec_ref_cold(ptr noundef nonnull %3) #5
  br label %lean_nat_lt.exit

lean_nat_lt.exit:                                 ; preds = %lean_dec.exit25, %19, %21, %22
  %23 = getelementptr i8, ptr %13, i64 8
  %.val = load i64, ptr %23, align 8, !tbaa !12
  %.mask = and i64 %.val, 9223372036854775807
  %.not38 = icmp eq i64 %.mask, 0
  br i1 %.not38, label %lean_dec.exit23, label %lean_dec.exit21

lean_dec.exit23:                                  ; preds = %lean_nat_lt.exit
  %24 = ptrtoint ptr %13 to i64
  %25 = and i64 %24, 1
  %.not40 = icmp eq i64 %25, 0
  br i1 %.not40, label %26, label %lean_dec.exit22

26:                                               ; preds = %lean_dec.exit23
  %27 = load i32, ptr %13, align 4, !tbaa !8
  %28 = icmp sgt i32 %27, 1
  br i1 %28, label %29, label %31, !prof !11

29:                                               ; preds = %26
  %30 = add nsw i32 %27, -1
  store i32 %30, ptr %13, align 4, !tbaa !8
  br label %lean_dec.exit22

31:                                               ; preds = %26
  %.not.i30 = icmp eq i32 %27, 0
  br i1 %.not.i30, label %lean_dec.exit22, label %32

32:                                               ; preds = %31
  tail call void @lean_dec_ref_cold(ptr noundef nonnull %13) #5
  br label %lean_dec.exit22

lean_dec.exit21:                                  ; preds = %lean_nat_lt.exit
  %33 = tail call zeroext i8 @l_Array_anyMUnsafe_any___at_Lean_Linter_MissingDocs_hasInheritDoc___spec__1(ptr noundef nonnull %13, i64 noundef 0, i64 noundef %.mask)
  %34 = ptrtoint ptr %13 to i64
  %35 = and i64 %34, 1
  %.not39 = icmp eq i64 %35, 0
  br i1 %.not39, label %36, label %lean_dec.exit22

36:                                               ; preds = %lean_dec.exit21
  %37 = load i32, ptr %13, align 4, !tbaa !8
  %38 = icmp sgt i32 %37, 1
  br i1 %38, label %39, label %41, !prof !11

39:                                               ; preds = %36
  %40 = add nsw i32 %37, -1
  store i32 %40, ptr %13, align 4, !tbaa !8
  br label %lean_dec.exit22

41:                                               ; preds = %36
  %.not.i34 = icmp eq i32 %37, 0
  br i1 %.not.i34, label %lean_dec.exit22, label %42

42:                                               ; preds = %41
  tail call void @lean_dec_ref_cold(ptr noundef nonnull %13) #5
  br label %lean_dec.exit22

lean_dec.exit22:                                  ; preds = %lean_dec.exit21, %39, %41, %42, %lean_dec.exit23, %29, %31, %32
  %.0 = phi i8 [ 0, %32 ], [ 0, %31 ], [ 0, %29 ], [ 0, %lean_dec.exit23 ], [ %33, %42 ], [ %33, %41 ], [ %33, %39 ], [ %33, %lean_dec.exit21 ]
  ret i8 %.0
}